
osero.elf:     file format elf32-avr

Sections:
Idx Name          Size      VMA       LMA       File off  Algn
  0 .data         00000084  00800100  00000d62  00000df6  2**0
                  CONTENTS, ALLOC, LOAD, DATA
  1 .text         00000d62  00000000  00000000  00000094  2**1
                  CONTENTS, ALLOC, LOAD, READONLY, CODE
  2 .bss          000000a4  00800184  00800184  00000e7a  2**0
                  ALLOC
  3 .comment      00000011  00000000  00000000  00000e7a  2**0
                  CONTENTS, READONLY
  4 .debug_aranges 00000160  00000000  00000000  00000e90  2**3
                  CONTENTS, READONLY, DEBUGGING
  5 .debug_info   0000082a  00000000  00000000  00000ff0  2**0
                  CONTENTS, READONLY, DEBUGGING
  6 .debug_abbrev 000000dc  00000000  00000000  0000181a  2**0
                  CONTENTS, READONLY, DEBUGGING
  7 .debug_line   00000444  00000000  00000000  000018f6  2**0
                  CONTENTS, READONLY, DEBUGGING

Disassembly of section .text:

00000000 <__vectors>:
   0:	19 c0       	rjmp	.+50     	; 0x34 <__ctors_end>
   2:	33 c0       	rjmp	.+102    	; 0x6a <__bad_interrupt>
   4:	32 c0       	rjmp	.+100    	; 0x6a <__bad_interrupt>
   6:	31 c0       	rjmp	.+98     	; 0x6a <__bad_interrupt>
   8:	56 c0       	rjmp	.+172    	; 0xb6 <__vector_4>
   a:	2f c0       	rjmp	.+94     	; 0x6a <__bad_interrupt>
   c:	2e c0       	rjmp	.+92     	; 0x6a <__bad_interrupt>
   e:	2d c0       	rjmp	.+90     	; 0x6a <__bad_interrupt>
  10:	2c c0       	rjmp	.+88     	; 0x6a <__bad_interrupt>
  12:	2b c0       	rjmp	.+86     	; 0x6a <__bad_interrupt>
  14:	2a c0       	rjmp	.+84     	; 0x6a <__bad_interrupt>
  16:	bc c0       	rjmp	.+376    	; 0x190 <__vector_11>
  18:	28 c0       	rjmp	.+80     	; 0x6a <__bad_interrupt>
  1a:	27 c0       	rjmp	.+78     	; 0x6a <__bad_interrupt>
  1c:	22 c5       	rjmp	.+2628   	; 0xa62 <__vector_14>
  1e:	25 c0       	rjmp	.+74     	; 0x6a <__bad_interrupt>
  20:	24 c0       	rjmp	.+72     	; 0x6a <__bad_interrupt>
  22:	23 c0       	rjmp	.+70     	; 0x6a <__bad_interrupt>
  24:	22 c0       	rjmp	.+68     	; 0x6a <__bad_interrupt>
  26:	21 c0       	rjmp	.+66     	; 0x6a <__bad_interrupt>
  28:	20 c0       	rjmp	.+64     	; 0x6a <__bad_interrupt>
  2a:	1f c0       	rjmp	.+62     	; 0x6a <__bad_interrupt>
  2c:	1e c0       	rjmp	.+60     	; 0x6a <__bad_interrupt>
  2e:	1d c0       	rjmp	.+58     	; 0x6a <__bad_interrupt>
  30:	1c c0       	rjmp	.+56     	; 0x6a <__bad_interrupt>
  32:	1b c0       	rjmp	.+54     	; 0x6a <__bad_interrupt>

00000034 <__ctors_end>:
  34:	11 24       	eor	r1, r1
  36:	1f be       	out	0x3f, r1	; 63
  38:	cf ef       	ldi	r28, 0xFF	; 255
  3a:	d4 e0       	ldi	r29, 0x04	; 4
  3c:	de bf       	out	0x3e, r29	; 62
  3e:	cd bf       	out	0x3d, r28	; 61

00000040 <__do_copy_data>:
  40:	11 e0       	ldi	r17, 0x01	; 1
  42:	a0 e0       	ldi	r26, 0x00	; 0
  44:	b1 e0       	ldi	r27, 0x01	; 1
  46:	e2 e6       	ldi	r30, 0x62	; 98
  48:	fd e0       	ldi	r31, 0x0D	; 13
  4a:	02 c0       	rjmp	.+4      	; 0x50 <__do_copy_data+0x10>
  4c:	05 90       	lpm	r0, Z+
  4e:	0d 92       	st	X+, r0
  50:	a4 38       	cpi	r26, 0x84	; 132
  52:	b1 07       	cpc	r27, r17
  54:	d9 f7       	brne	.-10     	; 0x4c <__do_copy_data+0xc>

00000056 <__do_clear_bss>:
  56:	22 e0       	ldi	r18, 0x02	; 2
  58:	a4 e8       	ldi	r26, 0x84	; 132
  5a:	b1 e0       	ldi	r27, 0x01	; 1
  5c:	01 c0       	rjmp	.+2      	; 0x60 <.do_clear_bss_start>

0000005e <.do_clear_bss_loop>:
  5e:	1d 92       	st	X+, r1

00000060 <.do_clear_bss_start>:
  60:	a8 32       	cpi	r26, 0x28	; 40
  62:	b2 07       	cpc	r27, r18
  64:	e1 f7       	brne	.-8      	; 0x5e <.do_clear_bss_loop>
  66:	66 d5       	rcall	.+2764   	; 0xb34 <main>
  68:	7a c6       	rjmp	.+3316   	; 0xd5e <_exit>

0000006a <__bad_interrupt>:
  6a:	ca cf       	rjmp	.-108    	; 0x0 <__vectors>

0000006c <sound_init>:
  6c:	10 92 b0 00 	sts	0x00B0, r1
  70:	84 e4       	ldi	r24, 0x44	; 68
  72:	80 93 b1 00 	sts	0x00B1, r24
  76:	08 95       	ret

00000078 <_sound>:
  78:	80 93 b3 00 	sts	0x00B3, r24
  7c:	70 e0       	ldi	r23, 0x00	; 0
  7e:	70 93 85 01 	sts	0x0185, r23
  82:	60 93 84 01 	sts	0x0184, r22
  86:	82 e1       	ldi	r24, 0x12	; 18
  88:	80 93 b0 00 	sts	0x00B0, r24
  8c:	08 95       	ret

0000008e <sound_update>:
  8e:	80 91 84 01 	lds	r24, 0x0184
  92:	90 91 85 01 	lds	r25, 0x0185
  96:	89 2b       	or	r24, r25
  98:	69 f0       	breq	.+26     	; 0xb4 <sound_update+0x26>
  9a:	80 91 84 01 	lds	r24, 0x0184
  9e:	90 91 85 01 	lds	r25, 0x0185
  a2:	01 97       	sbiw	r24, 0x01	; 1
  a4:	90 93 85 01 	sts	0x0185, r25
  a8:	80 93 84 01 	sts	0x0184, r24
  ac:	89 2b       	or	r24, r25
  ae:	11 f4       	brne	.+4      	; 0xb4 <sound_update+0x26>
  b0:	10 92 b0 00 	sts	0x00B0, r1
  b4:	08 95       	ret

000000b6 <__vector_4>:
  b6:	1f 92       	push	r1
  b8:	0f 92       	push	r0
  ba:	0f b6       	in	r0, 0x3f	; 63
  bc:	0f 92       	push	r0
  be:	11 24       	eor	r1, r1
  c0:	8f 93       	push	r24
  c2:	80 91 86 01 	lds	r24, 0x0186
  c6:	81 11       	cpse	r24, r1
  c8:	03 c0       	rjmp	.+6      	; 0xd0 <__vector_4+0x1a>
  ca:	81 e0       	ldi	r24, 0x01	; 1
  cc:	80 93 86 01 	sts	0x0186, r24
  d0:	d9 9a       	sbi	0x1b, 1	; 27
  d2:	8f 91       	pop	r24
  d4:	0f 90       	pop	r0
  d6:	0f be       	out	0x3f, r0	; 63
  d8:	0f 90       	pop	r0
  da:	1f 90       	pop	r1
  dc:	18 95       	reti

000000de <switch_init>:
  de:	e8 e6       	ldi	r30, 0x68	; 104
  e0:	f0 e0       	ldi	r31, 0x00	; 0
  e2:	80 81       	ld	r24, Z
  e4:	82 60       	ori	r24, 0x02	; 2
  e6:	80 83       	st	Z, r24
  e8:	80 e3       	ldi	r24, 0x30	; 48
  ea:	80 93 6c 00 	sts	0x006C, r24
  ee:	80 93 93 01 	sts	0x0193, r24
  f2:	80 93 94 01 	sts	0x0194, r24
  f6:	10 92 95 01 	sts	0x0195, r1
  fa:	08 95       	ret

000000fc <switch_update>:
  fc:	80 91 86 01 	lds	r24, 0x0186
 100:	88 23       	and	r24, r24
 102:	39 f1       	breq	.+78     	; 0x152 <switch_update+0x56>
 104:	80 91 91 01 	lds	r24, 0x0191
 108:	90 91 92 01 	lds	r25, 0x0192
 10c:	80 37       	cpi	r24, 0x70	; 112
 10e:	97 41       	sbci	r25, 0x17	; 23
 110:	30 f4       	brcc	.+12     	; 0x11e <switch_update+0x22>
 112:	80 91 91 01 	lds	r24, 0x0191
 116:	90 91 92 01 	lds	r25, 0x0192
 11a:	01 96       	adiw	r24, 0x01	; 1
 11c:	02 c0       	rjmp	.+4      	; 0x122 <switch_update+0x26>
 11e:	80 e0       	ldi	r24, 0x00	; 0
 120:	90 e0       	ldi	r25, 0x00	; 0
 122:	90 93 92 01 	sts	0x0192, r25
 126:	80 93 91 01 	sts	0x0191, r24
 12a:	80 91 91 01 	lds	r24, 0x0191
 12e:	90 91 92 01 	lds	r25, 0x0192
 132:	89 2b       	or	r24, r25
 134:	71 f4       	brne	.+28     	; 0x152 <switch_update+0x56>
 136:	86 b1       	in	r24, 0x06	; 6
 138:	90 e0       	ldi	r25, 0x00	; 0
 13a:	80 95       	com	r24
 13c:	90 95       	com	r25
 13e:	24 e0       	ldi	r18, 0x04	; 4
 140:	95 95       	asr	r25
 142:	87 95       	ror	r24
 144:	2a 95       	dec	r18
 146:	e1 f7       	brne	.-8      	; 0x140 <switch_update+0x44>
 148:	83 70       	andi	r24, 0x03	; 3
 14a:	80 93 93 01 	sts	0x0193, r24
 14e:	10 92 86 01 	sts	0x0186, r1
 152:	08 95       	ret

00000154 <switch_isChanged>:
 154:	90 91 93 01 	lds	r25, 0x0193
 158:	80 91 95 01 	lds	r24, 0x0195
 15c:	98 17       	cp	r25, r24
 15e:	39 f0       	breq	.+14     	; 0x16e <switch_isChanged+0x1a>
 160:	80 91 93 01 	lds	r24, 0x0193
 164:	80 93 95 01 	sts	0x0195, r24
 168:	81 e0       	ldi	r24, 0x01	; 1
 16a:	90 e0       	ldi	r25, 0x00	; 0
 16c:	08 95       	ret
 16e:	80 e0       	ldi	r24, 0x00	; 0
 170:	90 e0       	ldi	r25, 0x00	; 0
 172:	08 95       	ret

00000174 <switch_getState>:
 174:	80 91 95 01 	lds	r24, 0x0195
 178:	90 e0       	ldi	r25, 0x00	; 0
 17a:	08 95       	ret

0000017c <random_init>:
 17c:	80 e0       	ldi	r24, 0x00	; 0
 17e:	90 e0       	ldi	r25, 0x00	; 0
 180:	6e d5       	rcall	.+2780   	; 0xc5e <__eerd_word_m88pa>
 182:	62 d5       	rcall	.+2756   	; 0xc48 <srand>
 184:	5d d5       	rcall	.+2746   	; 0xc40 <rand>
 186:	bc 01       	movw	r22, r24
 188:	80 e0       	ldi	r24, 0x00	; 0
 18a:	90 e0       	ldi	r25, 0x00	; 0
 18c:	6d c5       	rjmp	.+2778   	; 0xc68 <__eewr_word_m88pa>

0000018e <random_rand>:
 18e:	58 c5       	rjmp	.+2736   	; 0xc40 <rand>

00000190 <__vector_11>:
 190:	1f 92       	push	r1
 192:	0f 92       	push	r0
 194:	0f b6       	in	r0, 0x3f	; 63
 196:	0f 92       	push	r0
 198:	11 24       	eor	r1, r1
 19a:	bf 92       	push	r11
 19c:	cf 92       	push	r12
 19e:	df 92       	push	r13
 1a0:	ef 92       	push	r14
 1a2:	ff 92       	push	r15
 1a4:	0f 93       	push	r16
 1a6:	1f 93       	push	r17
 1a8:	2f 93       	push	r18
 1aa:	3f 93       	push	r19
 1ac:	4f 93       	push	r20
 1ae:	5f 93       	push	r21
 1b0:	6f 93       	push	r22
 1b2:	7f 93       	push	r23
 1b4:	8f 93       	push	r24
 1b6:	9f 93       	push	r25
 1b8:	af 93       	push	r26
 1ba:	bf 93       	push	r27
 1bc:	cf 93       	push	r28
 1be:	df 93       	push	r29
 1c0:	ef 93       	push	r30
 1c2:	ff 93       	push	r31
 1c4:	15 b8       	out	0x05, r1	; 5
 1c6:	80 91 8b 01 	lds	r24, 0x018B
 1ca:	8f 5f       	subi	r24, 0xFF	; 255
 1cc:	87 70       	andi	r24, 0x07	; 7
 1ce:	80 93 8b 01 	sts	0x018B, r24
 1d2:	20 91 8b 01 	lds	r18, 0x018B
 1d6:	81 e0       	ldi	r24, 0x01	; 1
 1d8:	90 e0       	ldi	r25, 0x00	; 0
 1da:	02 2e       	mov	r0, r18
 1dc:	01 c0       	rjmp	.+2      	; 0x1e0 <__vector_11+0x50>
 1de:	88 0f       	add	r24, r24
 1e0:	0a 94       	dec	r0
 1e2:	ea f7       	brpl	.-6      	; 0x1de <__vector_11+0x4e>
 1e4:	80 95       	com	r24
 1e6:	e0 91 8b 01 	lds	r30, 0x018B
 1ea:	f0 e0       	ldi	r31, 0x00	; 0
 1ec:	ea 56       	subi	r30, 0x6A	; 106
 1ee:	fe 4f       	sbci	r31, 0xFE	; 254
 1f0:	10 82       	st	Z, r1
 1f2:	98 2f       	mov	r25, r24
 1f4:	9f 70       	andi	r25, 0x0F	; 15
 1f6:	90 63       	ori	r25, 0x30	; 48
 1f8:	98 b9       	out	0x08, r25	; 8
 1fa:	80 7f       	andi	r24, 0xF0	; 240
 1fc:	8b b9       	out	0x0b, r24	; 11
 1fe:	80 91 1e 02 	lds	r24, 0x021E
 202:	90 91 1f 02 	lds	r25, 0x021F
 206:	05 97       	sbiw	r24, 0x05	; 5
 208:	34 f4       	brge	.+12     	; 0x216 <__vector_11+0x86>
 20a:	80 91 1e 02 	lds	r24, 0x021E
 20e:	90 91 1f 02 	lds	r25, 0x021F
 212:	01 96       	adiw	r24, 0x01	; 1
 214:	02 c0       	rjmp	.+4      	; 0x21a <__vector_11+0x8a>
 216:	81 e0       	ldi	r24, 0x01	; 1
 218:	90 e0       	ldi	r25, 0x00	; 0
 21a:	90 93 1f 02 	sts	0x021F, r25
 21e:	80 93 1e 02 	sts	0x021E, r24
 222:	c7 e0       	ldi	r28, 0x07	; 7
 224:	d0 e0       	ldi	r29, 0x00	; 0
 226:	80 91 22 02 	lds	r24, 0x0222
 22a:	90 91 23 02 	lds	r25, 0x0223
 22e:	c8 1b       	sub	r28, r24
 230:	d9 0b       	sbc	r29, r25
 232:	e0 90 20 02 	lds	r14, 0x0220
 236:	f0 90 21 02 	lds	r15, 0x0221
 23a:	40 91 24 02 	lds	r20, 0x0224
 23e:	b0 90 25 02 	lds	r11, 0x0225
 242:	20 e0       	ldi	r18, 0x00	; 0
 244:	30 e0       	ldi	r19, 0x00	; 0
 246:	07 e0       	ldi	r16, 0x07	; 7
 248:	10 e0       	ldi	r17, 0x00	; 0
 24a:	cc 24       	eor	r12, r12
 24c:	c3 94       	inc	r12
 24e:	d1 2c       	mov	r13, r1
 250:	80 91 8f 01 	lds	r24, 0x018F
 254:	90 91 90 01 	lds	r25, 0x0190
 258:	89 2b       	or	r24, r25
 25a:	49 f4       	brne	.+18     	; 0x26e <__vector_11+0xde>
 25c:	80 91 8b 01 	lds	r24, 0x018B
 260:	90 e0       	ldi	r25, 0x00	; 0
 262:	8c 17       	cp	r24, r28
 264:	9d 07       	cpc	r25, r29
 266:	19 f4       	brne	.+6      	; 0x26e <__vector_11+0xde>
 268:	e2 16       	cp	r14, r18
 26a:	f3 06       	cpc	r15, r19
 26c:	99 f0       	breq	.+38     	; 0x294 <__vector_11+0x104>
 26e:	80 91 8b 01 	lds	r24, 0x018B
 272:	f8 01       	movw	r30, r16
 274:	e8 1b       	sub	r30, r24
 276:	f1 09       	sbc	r31, r1
 278:	83 e0       	ldi	r24, 0x03	; 3
 27a:	ee 0f       	add	r30, r30
 27c:	ff 1f       	adc	r31, r31
 27e:	8a 95       	dec	r24
 280:	e1 f7       	brne	.-8      	; 0x27a <__vector_11+0xea>
 282:	e2 0f       	add	r30, r18
 284:	f3 1f       	adc	r31, r19
 286:	ee 0f       	add	r30, r30
 288:	ff 1f       	adc	r31, r31
 28a:	e2 56       	subi	r30, 0x62	; 98
 28c:	fe 4f       	sbci	r31, 0xFE	; 254
 28e:	60 81       	ld	r22, Z
 290:	71 81       	ldd	r23, Z+1	; 0x01
 292:	02 c0       	rjmp	.+4      	; 0x298 <__vector_11+0x108>
 294:	64 2f       	mov	r22, r20
 296:	7b 2d       	mov	r23, r11
 298:	80 91 1e 02 	lds	r24, 0x021E
 29c:	90 91 1f 02 	lds	r25, 0x021F
 2a0:	5e d4       	rcall	.+2236   	; 0xb5e <__divmodhi4>
 2a2:	89 2b       	or	r24, r25
 2a4:	89 f4       	brne	.+34     	; 0x2c8 <__vector_11+0x138>
 2a6:	e0 91 8b 01 	lds	r30, 0x018B
 2aa:	f0 e0       	ldi	r31, 0x00	; 0
 2ac:	ea 56       	subi	r30, 0x6A	; 106
 2ae:	fe 4f       	sbci	r31, 0xFE	; 254
 2b0:	50 81       	ld	r21, Z
 2b2:	c8 01       	movw	r24, r16
 2b4:	82 1b       	sub	r24, r18
 2b6:	93 0b       	sbc	r25, r19
 2b8:	b6 01       	movw	r22, r12
 2ba:	02 c0       	rjmp	.+4      	; 0x2c0 <__vector_11+0x130>
 2bc:	66 0f       	add	r22, r22
 2be:	77 1f       	adc	r23, r23
 2c0:	8a 95       	dec	r24
 2c2:	e2 f7       	brpl	.-8      	; 0x2bc <__vector_11+0x12c>
 2c4:	56 2b       	or	r21, r22
 2c6:	50 83       	st	Z, r21
 2c8:	2f 5f       	subi	r18, 0xFF	; 255
 2ca:	3f 4f       	sbci	r19, 0xFF	; 255
 2cc:	28 30       	cpi	r18, 0x08	; 8
 2ce:	31 05       	cpc	r19, r1
 2d0:	09 f0       	breq	.+2      	; 0x2d4 <__vector_11+0x144>
 2d2:	be cf       	rjmp	.-132    	; 0x250 <__vector_11+0xc0>
 2d4:	e0 91 8b 01 	lds	r30, 0x018B
 2d8:	f0 e0       	ldi	r31, 0x00	; 0
 2da:	ea 56       	subi	r30, 0x6A	; 106
 2dc:	fe 4f       	sbci	r31, 0xFE	; 254
 2de:	80 81       	ld	r24, Z
 2e0:	85 b9       	out	0x05, r24	; 5
 2e2:	ff 91       	pop	r31
 2e4:	ef 91       	pop	r30
 2e6:	df 91       	pop	r29
 2e8:	cf 91       	pop	r28
 2ea:	bf 91       	pop	r27
 2ec:	af 91       	pop	r26
 2ee:	9f 91       	pop	r25
 2f0:	8f 91       	pop	r24
 2f2:	7f 91       	pop	r23
 2f4:	6f 91       	pop	r22
 2f6:	5f 91       	pop	r21
 2f8:	4f 91       	pop	r20
 2fa:	3f 91       	pop	r19
 2fc:	2f 91       	pop	r18
 2fe:	1f 91       	pop	r17
 300:	0f 91       	pop	r16
 302:	ff 90       	pop	r15
 304:	ef 90       	pop	r14
 306:	df 90       	pop	r13
 308:	cf 90       	pop	r12
 30a:	bf 90       	pop	r11
 30c:	0f 90       	pop	r0
 30e:	0f be       	out	0x3f, r0	; 63
 310:	0f 90       	pop	r0
 312:	1f 90       	pop	r1
 314:	18 95       	reti

00000316 <led_init>:
 316:	8f ef       	ldi	r24, 0xFF	; 255
 318:	84 b9       	out	0x04, r24	; 4
 31a:	8f e0       	ldi	r24, 0x0F	; 15
 31c:	87 b9       	out	0x07, r24	; 7
 31e:	8a ef       	ldi	r24, 0xFA	; 250
 320:	8a b9       	out	0x0a, r24	; 10
 322:	80 e3       	ldi	r24, 0x30	; 48
 324:	88 b9       	out	0x08, r24	; 8
 326:	1b b8       	out	0x0b, r1	; 11
 328:	15 b8       	out	0x05, r1	; 5
 32a:	10 92 80 00 	sts	0x0080, r1
 32e:	8a e0       	ldi	r24, 0x0A	; 10
 330:	80 93 81 00 	sts	0x0081, r24
 334:	84 ef       	ldi	r24, 0xF4	; 244
 336:	91 e0       	ldi	r25, 0x01	; 1
 338:	90 93 89 00 	sts	0x0089, r25
 33c:	80 93 88 00 	sts	0x0088, r24
 340:	ef e6       	ldi	r30, 0x6F	; 111
 342:	f0 e0       	ldi	r31, 0x00	; 0
 344:	80 81       	ld	r24, Z
 346:	82 60       	ori	r24, 0x02	; 2
 348:	80 83       	st	Z, r24
 34a:	08 95       	ret

0000034c <game_init>:
 34c:	10 92 1f 02 	sts	0x021F, r1
 350:	10 92 1e 02 	sts	0x021E, r1
 354:	80 e0       	ldi	r24, 0x00	; 0
 356:	90 e0       	ldi	r25, 0x00	; 0
 358:	66 e0       	ldi	r22, 0x06	; 6
 35a:	70 e0       	ldi	r23, 0x00	; 0
 35c:	20 e0       	ldi	r18, 0x00	; 0
 35e:	30 e0       	ldi	r19, 0x00	; 0
 360:	ac 01       	movw	r20, r24
 362:	e3 e0       	ldi	r30, 0x03	; 3
 364:	44 0f       	add	r20, r20
 366:	55 1f       	adc	r21, r21
 368:	ea 95       	dec	r30
 36a:	e1 f7       	brne	.-8      	; 0x364 <game_init+0x18>
 36c:	fa 01       	movw	r30, r20
 36e:	e2 0f       	add	r30, r18
 370:	f3 1f       	adc	r31, r19
 372:	ee 0f       	add	r30, r30
 374:	ff 1f       	adc	r31, r31
 376:	e2 56       	subi	r30, 0x62	; 98
 378:	fe 4f       	sbci	r31, 0xFE	; 254
 37a:	71 83       	std	Z+1, r23	; 0x01
 37c:	60 83       	st	Z, r22
 37e:	2f 5f       	subi	r18, 0xFF	; 255
 380:	3f 4f       	sbci	r19, 0xFF	; 255
 382:	28 30       	cpi	r18, 0x08	; 8
 384:	31 05       	cpc	r19, r1
 386:	91 f7       	brne	.-28     	; 0x36c <game_init+0x20>
 388:	fc 01       	movw	r30, r24
 38a:	ea 56       	subi	r30, 0x6A	; 106
 38c:	fe 4f       	sbci	r31, 0xFE	; 254
 38e:	10 82       	st	Z, r1
 390:	01 96       	adiw	r24, 0x01	; 1
 392:	88 30       	cpi	r24, 0x08	; 8
 394:	91 05       	cpc	r25, r1
 396:	11 f7       	brne	.-60     	; 0x35c <game_init+0x10>
 398:	81 e0       	ldi	r24, 0x01	; 1
 39a:	90 e0       	ldi	r25, 0x00	; 0
 39c:	90 93 d5 01 	sts	0x01D5, r25
 3a0:	80 93 d4 01 	sts	0x01D4, r24
 3a4:	90 93 e7 01 	sts	0x01E7, r25
 3a8:	80 93 e6 01 	sts	0x01E6, r24
 3ac:	25 e0       	ldi	r18, 0x05	; 5
 3ae:	30 e0       	ldi	r19, 0x00	; 0
 3b0:	30 93 d7 01 	sts	0x01D7, r19
 3b4:	20 93 d6 01 	sts	0x01D6, r18
 3b8:	30 93 e5 01 	sts	0x01E5, r19
 3bc:	20 93 e4 01 	sts	0x01E4, r18
 3c0:	22 e0       	ldi	r18, 0x02	; 2
 3c2:	30 e0       	ldi	r19, 0x00	; 0
 3c4:	30 93 21 02 	sts	0x0221, r19
 3c8:	20 93 20 02 	sts	0x0220, r18
 3cc:	24 e0       	ldi	r18, 0x04	; 4
 3ce:	30 e0       	ldi	r19, 0x00	; 0
 3d0:	30 93 23 02 	sts	0x0223, r19
 3d4:	20 93 22 02 	sts	0x0222, r18
 3d8:	90 93 27 02 	sts	0x0227, r25
 3dc:	80 93 26 02 	sts	0x0226, r24
 3e0:	90 93 25 02 	sts	0x0225, r25
 3e4:	80 93 24 02 	sts	0x0224, r24
 3e8:	10 92 90 01 	sts	0x0190, r1
 3ec:	10 92 8f 01 	sts	0x018F, r1
 3f0:	08 95       	ret

000003f2 <timer_init>:
 3f2:	89 ef       	ldi	r24, 0xF9	; 249
 3f4:	87 bd       	out	0x27, r24	; 39
 3f6:	82 e0       	ldi	r24, 0x02	; 2
 3f8:	84 bd       	out	0x24, r24	; 36
 3fa:	83 e0       	ldi	r24, 0x03	; 3
 3fc:	85 bd       	out	0x25, r24	; 37
 3fe:	ee e6       	ldi	r30, 0x6E	; 110
 400:	f0 e0       	ldi	r31, 0x00	; 0
 402:	80 81       	ld	r24, Z
 404:	82 60       	ori	r24, 0x02	; 2
 406:	80 83       	st	Z, r24
 408:	08 95       	ret

0000040a <game_finished>:
 40a:	08 95       	ret

0000040c <game_menu>:
 40c:	08 95       	ret

0000040e <countTurnOver>:
 40e:	ef 92       	push	r14
 410:	ff 92       	push	r15
 412:	0f 93       	push	r16
 414:	1f 93       	push	r17
 416:	cf 93       	push	r28
 418:	df 93       	push	r29
 41a:	81 30       	cpi	r24, 0x01	; 1
 41c:	91 05       	cpc	r25, r1
 41e:	19 f4       	brne	.+6      	; 0x426 <countTurnOver+0x18>
 420:	c5 e0       	ldi	r28, 0x05	; 5
 422:	d0 e0       	ldi	r29, 0x00	; 0
 424:	02 c0       	rjmp	.+4      	; 0x42a <countTurnOver+0x1c>
 426:	c1 e0       	ldi	r28, 0x01	; 1
 428:	d0 e0       	ldi	r29, 0x00	; 0
 42a:	62 0f       	add	r22, r18
 42c:	73 1f       	adc	r23, r19
 42e:	40 0f       	add	r20, r16
 430:	51 1f       	adc	r21, r17
 432:	a1 e0       	ldi	r26, 0x01	; 1
 434:	b0 e0       	ldi	r27, 0x00	; 0
 436:	7b 01       	movw	r14, r22
 438:	fb 01       	movw	r30, r22
 43a:	ee 0f       	add	r30, r30
 43c:	ff 1f       	adc	r31, r31
 43e:	ee 0f       	add	r30, r30
 440:	ff 1f       	adc	r31, r31
 442:	ee 0f       	add	r30, r30
 444:	ff 1f       	adc	r31, r31
 446:	e4 0f       	add	r30, r20
 448:	f5 1f       	adc	r31, r21
 44a:	ee 0f       	add	r30, r30
 44c:	ff 1f       	adc	r31, r31
 44e:	e2 56       	subi	r30, 0x62	; 98
 450:	fe 4f       	sbci	r31, 0xFE	; 254
 452:	01 90       	ld	r0, Z+
 454:	f0 81       	ld	r31, Z
 456:	e0 2d       	mov	r30, r0
 458:	ec 17       	cp	r30, r28
 45a:	fd 07       	cpc	r31, r29
 45c:	19 f4       	brne	.+6      	; 0x464 <countTurnOver+0x56>
 45e:	68 30       	cpi	r22, 0x08	; 8
 460:	71 05       	cpc	r23, r1
 462:	a0 f0       	brcs	.+40     	; 0x48c <countTurnOver+0x7e>
 464:	f7 01       	movw	r30, r14
 466:	23 e0       	ldi	r18, 0x03	; 3
 468:	ee 0f       	add	r30, r30
 46a:	ff 1f       	adc	r31, r31
 46c:	2a 95       	dec	r18
 46e:	e1 f7       	brne	.-8      	; 0x468 <countTurnOver+0x5a>
 470:	e4 0f       	add	r30, r20
 472:	f5 1f       	adc	r31, r21
 474:	ee 0f       	add	r30, r30
 476:	ff 1f       	adc	r31, r31
 478:	e2 56       	subi	r30, 0x62	; 98
 47a:	fe 4f       	sbci	r31, 0xFE	; 254
 47c:	20 81       	ld	r18, Z
 47e:	31 81       	ldd	r19, Z+1	; 0x01
 480:	28 17       	cp	r18, r24
 482:	39 07       	cpc	r19, r25
 484:	61 f0       	breq	.+24     	; 0x49e <countTurnOver+0x90>
 486:	80 e0       	ldi	r24, 0x00	; 0
 488:	90 e0       	ldi	r25, 0x00	; 0
 48a:	0b c0       	rjmp	.+22     	; 0x4a2 <countTurnOver+0x94>
 48c:	62 0f       	add	r22, r18
 48e:	73 1f       	adc	r23, r19
 490:	48 30       	cpi	r20, 0x08	; 8
 492:	51 05       	cpc	r21, r1
 494:	38 f7       	brcc	.-50     	; 0x464 <countTurnOver+0x56>
 496:	11 96       	adiw	r26, 0x01	; 1
 498:	40 0f       	add	r20, r16
 49a:	51 1f       	adc	r21, r17
 49c:	cc cf       	rjmp	.-104    	; 0x436 <countTurnOver+0x28>
 49e:	cd 01       	movw	r24, r26
 4a0:	01 97       	sbiw	r24, 0x01	; 1
 4a2:	df 91       	pop	r29
 4a4:	cf 91       	pop	r28
 4a6:	1f 91       	pop	r17
 4a8:	0f 91       	pop	r16
 4aa:	ff 90       	pop	r15
 4ac:	ef 90       	pop	r14
 4ae:	08 95       	ret

000004b0 <judgePutStone>:
 4b0:	cf 92       	push	r12
 4b2:	df 92       	push	r13
 4b4:	ef 92       	push	r14
 4b6:	ff 92       	push	r15
 4b8:	0f 93       	push	r16
 4ba:	1f 93       	push	r17
 4bc:	cf 93       	push	r28
 4be:	df 93       	push	r29
 4c0:	7c 01       	movw	r14, r24
 4c2:	eb 01       	movw	r28, r22
 4c4:	6a 01       	movw	r12, r20
 4c6:	fb 01       	movw	r30, r22
 4c8:	43 e0       	ldi	r20, 0x03	; 3
 4ca:	ee 0f       	add	r30, r30
 4cc:	ff 1f       	adc	r31, r31
 4ce:	4a 95       	dec	r20
 4d0:	e1 f7       	brne	.-8      	; 0x4ca <judgePutStone+0x1a>
 4d2:	e8 0f       	add	r30, r24
 4d4:	f9 1f       	adc	r31, r25
 4d6:	ee 0f       	add	r30, r30
 4d8:	ff 1f       	adc	r31, r31
 4da:	e2 56       	subi	r30, 0x62	; 98
 4dc:	fe 4f       	sbci	r31, 0xFE	; 254
 4de:	80 81       	ld	r24, Z
 4e0:	91 81       	ldd	r25, Z+1	; 0x01
 4e2:	06 97       	sbiw	r24, 0x06	; 6
 4e4:	09 f0       	breq	.+2      	; 0x4e8 <judgePutStone+0x38>
 4e6:	57 c0       	rjmp	.+174    	; 0x596 <__stack+0x97>
 4e8:	00 e0       	ldi	r16, 0x00	; 0
 4ea:	10 e0       	ldi	r17, 0x00	; 0
 4ec:	2f ef       	ldi	r18, 0xFF	; 255
 4ee:	3f ef       	ldi	r19, 0xFF	; 255
 4f0:	a7 01       	movw	r20, r14
 4f2:	c6 01       	movw	r24, r12
 4f4:	8c df       	rcall	.-232    	; 0x40e <countTurnOver>
 4f6:	89 2b       	or	r24, r25
 4f8:	f1 f4       	brne	.+60     	; 0x536 <__stack+0x37>
 4fa:	00 e0       	ldi	r16, 0x00	; 0
 4fc:	10 e0       	ldi	r17, 0x00	; 0
 4fe:	21 e0       	ldi	r18, 0x01	; 1
 500:	30 e0       	ldi	r19, 0x00	; 0
 502:	a7 01       	movw	r20, r14
 504:	be 01       	movw	r22, r28
 506:	c6 01       	movw	r24, r12
 508:	82 df       	rcall	.-252    	; 0x40e <countTurnOver>
 50a:	89 2b       	or	r24, r25
 50c:	a1 f4       	brne	.+40     	; 0x536 <__stack+0x37>
 50e:	0f ef       	ldi	r16, 0xFF	; 255
 510:	1f ef       	ldi	r17, 0xFF	; 255
 512:	20 e0       	ldi	r18, 0x00	; 0
 514:	30 e0       	ldi	r19, 0x00	; 0
 516:	a7 01       	movw	r20, r14
 518:	be 01       	movw	r22, r28
 51a:	c6 01       	movw	r24, r12
 51c:	78 df       	rcall	.-272    	; 0x40e <countTurnOver>
 51e:	89 2b       	or	r24, r25
 520:	51 f4       	brne	.+20     	; 0x536 <__stack+0x37>
 522:	01 e0       	ldi	r16, 0x01	; 1
 524:	10 e0       	ldi	r17, 0x00	; 0
 526:	20 e0       	ldi	r18, 0x00	; 0
 528:	30 e0       	ldi	r19, 0x00	; 0
 52a:	a7 01       	movw	r20, r14
 52c:	be 01       	movw	r22, r28
 52e:	c6 01       	movw	r24, r12
 530:	6e df       	rcall	.-292    	; 0x40e <countTurnOver>
 532:	89 2b       	or	r24, r25
 534:	11 f0       	breq	.+4      	; 0x53a <__stack+0x3b>
 536:	81 e0       	ldi	r24, 0x01	; 1
 538:	2f c0       	rjmp	.+94     	; 0x598 <__stack+0x99>
 53a:	0f ef       	ldi	r16, 0xFF	; 255
 53c:	1f ef       	ldi	r17, 0xFF	; 255
 53e:	2f ef       	ldi	r18, 0xFF	; 255
 540:	3f ef       	ldi	r19, 0xFF	; 255
 542:	a7 01       	movw	r20, r14
 544:	be 01       	movw	r22, r28
 546:	c6 01       	movw	r24, r12
 548:	62 df       	rcall	.-316    	; 0x40e <countTurnOver>
 54a:	89 2b       	or	r24, r25
 54c:	a1 f7       	brne	.-24     	; 0x536 <__stack+0x37>
 54e:	01 e0       	ldi	r16, 0x01	; 1
 550:	10 e0       	ldi	r17, 0x00	; 0
 552:	2f ef       	ldi	r18, 0xFF	; 255
 554:	3f ef       	ldi	r19, 0xFF	; 255
 556:	a7 01       	movw	r20, r14
 558:	be 01       	movw	r22, r28
 55a:	c6 01       	movw	r24, r12
 55c:	58 df       	rcall	.-336    	; 0x40e <countTurnOver>
 55e:	89 2b       	or	r24, r25
 560:	51 f7       	brne	.-44     	; 0x536 <__stack+0x37>
 562:	0f ef       	ldi	r16, 0xFF	; 255
 564:	1f ef       	ldi	r17, 0xFF	; 255
 566:	21 e0       	ldi	r18, 0x01	; 1
 568:	30 e0       	ldi	r19, 0x00	; 0
 56a:	a7 01       	movw	r20, r14
 56c:	be 01       	movw	r22, r28
 56e:	c6 01       	movw	r24, r12
 570:	4e df       	rcall	.-356    	; 0x40e <countTurnOver>
 572:	89 2b       	or	r24, r25
 574:	01 f7       	brne	.-64     	; 0x536 <__stack+0x37>
 576:	01 e0       	ldi	r16, 0x01	; 1
 578:	10 e0       	ldi	r17, 0x00	; 0
 57a:	21 e0       	ldi	r18, 0x01	; 1
 57c:	30 e0       	ldi	r19, 0x00	; 0
 57e:	a7 01       	movw	r20, r14
 580:	be 01       	movw	r22, r28
 582:	c6 01       	movw	r24, r12
 584:	44 df       	rcall	.-376    	; 0x40e <countTurnOver>
 586:	31 e0       	ldi	r19, 0x01	; 1
 588:	20 e0       	ldi	r18, 0x00	; 0
 58a:	89 2b       	or	r24, r25
 58c:	09 f4       	brne	.+2      	; 0x590 <__stack+0x91>
 58e:	30 e0       	ldi	r19, 0x00	; 0
 590:	83 2f       	mov	r24, r19
 592:	92 2f       	mov	r25, r18
 594:	02 c0       	rjmp	.+4      	; 0x59a <__stack+0x9b>
 596:	80 e0       	ldi	r24, 0x00	; 0
 598:	90 e0       	ldi	r25, 0x00	; 0
 59a:	df 91       	pop	r29
 59c:	cf 91       	pop	r28
 59e:	1f 91       	pop	r17
 5a0:	0f 91       	pop	r16
 5a2:	ff 90       	pop	r15
 5a4:	ef 90       	pop	r14
 5a6:	df 90       	pop	r13
 5a8:	cf 90       	pop	r12
 5aa:	08 95       	ret

000005ac <putStone>:
 5ac:	6f 92       	push	r6
 5ae:	7f 92       	push	r7
 5b0:	8f 92       	push	r8
 5b2:	9f 92       	push	r9
 5b4:	af 92       	push	r10
 5b6:	bf 92       	push	r11
 5b8:	cf 92       	push	r12
 5ba:	df 92       	push	r13
 5bc:	ef 92       	push	r14
 5be:	ff 92       	push	r15
 5c0:	0f 93       	push	r16
 5c2:	1f 93       	push	r17
 5c4:	cf 93       	push	r28
 5c6:	df 93       	push	r29
 5c8:	6c 01       	movw	r12, r24
 5ca:	5b 01       	movw	r10, r22
 5cc:	3a 01       	movw	r6, r20
 5ce:	70 df       	rcall	.-288    	; 0x4b0 <judgePutStone>
 5d0:	89 2b       	or	r24, r25
 5d2:	09 f4       	brne	.+2      	; 0x5d6 <putStone+0x2a>
 5d4:	5d c0       	rjmp	.+186    	; 0x690 <putStone+0xe4>
 5d6:	cf ef       	ldi	r28, 0xFF	; 255
 5d8:	df ef       	ldi	r29, 0xFF	; 255
 5da:	ee 24       	eor	r14, r14
 5dc:	ea 94       	dec	r14
 5de:	fe 2c       	mov	r15, r14
 5e0:	4e 01       	movw	r8, r28
 5e2:	8a 0c       	add	r8, r10
 5e4:	9b 1c       	adc	r9, r11
 5e6:	20 97       	sbiw	r28, 0x00	; 0
 5e8:	59 f4       	brne	.+22     	; 0x600 <putStone+0x54>
 5ea:	e1 14       	cp	r14, r1
 5ec:	f1 04       	cpc	r15, r1
 5ee:	41 f4       	brne	.+16     	; 0x600 <putStone+0x54>
 5f0:	8f ef       	ldi	r24, 0xFF	; 255
 5f2:	e8 1a       	sub	r14, r24
 5f4:	f8 0a       	sbc	r15, r24
 5f6:	82 e0       	ldi	r24, 0x02	; 2
 5f8:	e8 16       	cp	r14, r24
 5fa:	f1 04       	cpc	r15, r1
 5fc:	a1 f7       	brne	.-24     	; 0x5e6 <putStone+0x3a>
 5fe:	24 c0       	rjmp	.+72     	; 0x648 <putStone+0x9c>
 600:	87 01       	movw	r16, r14
 602:	9e 01       	movw	r18, r28
 604:	a6 01       	movw	r20, r12
 606:	b5 01       	movw	r22, r10
 608:	c3 01       	movw	r24, r6
 60a:	01 df       	rcall	.-510    	; 0x40e <countTurnOver>
 60c:	a4 01       	movw	r20, r8
 60e:	b7 01       	movw	r22, r14
 610:	6c 0d       	add	r22, r12
 612:	7d 1d       	adc	r23, r13
 614:	21 e0       	ldi	r18, 0x01	; 1
 616:	30 e0       	ldi	r19, 0x00	; 0
 618:	82 17       	cp	r24, r18
 61a:	93 07       	cpc	r25, r19
 61c:	4c f3       	brlt	.-46     	; 0x5f0 <putStone+0x44>
 61e:	fa 01       	movw	r30, r20
 620:	a3 e0       	ldi	r26, 0x03	; 3
 622:	ee 0f       	add	r30, r30
 624:	ff 1f       	adc	r31, r31
 626:	aa 95       	dec	r26
 628:	e1 f7       	brne	.-8      	; 0x622 <putStone+0x76>
 62a:	e6 0f       	add	r30, r22
 62c:	f7 1f       	adc	r31, r23
 62e:	ee 0f       	add	r30, r30
 630:	ff 1f       	adc	r31, r31
 632:	e2 56       	subi	r30, 0x62	; 98
 634:	fe 4f       	sbci	r31, 0xFE	; 254
 636:	71 82       	std	Z+1, r7	; 0x01
 638:	60 82       	st	Z, r6
 63a:	2f 5f       	subi	r18, 0xFF	; 255
 63c:	3f 4f       	sbci	r19, 0xFF	; 255
 63e:	6e 0d       	add	r22, r14
 640:	7f 1d       	adc	r23, r15
 642:	4c 0f       	add	r20, r28
 644:	5d 1f       	adc	r21, r29
 646:	e8 cf       	rjmp	.-48     	; 0x618 <putStone+0x6c>
 648:	21 96       	adiw	r28, 0x01	; 1
 64a:	c2 30       	cpi	r28, 0x02	; 2
 64c:	d1 05       	cpc	r29, r1
 64e:	29 f6       	brne	.-118    	; 0x5da <putStone+0x2e>
 650:	f5 01       	movw	r30, r10
 652:	63 e0       	ldi	r22, 0x03	; 3
 654:	ee 0f       	add	r30, r30
 656:	ff 1f       	adc	r31, r31
 658:	6a 95       	dec	r22
 65a:	e1 f7       	brne	.-8      	; 0x654 <putStone+0xa8>
 65c:	ec 0d       	add	r30, r12
 65e:	fd 1d       	adc	r31, r13
 660:	ee 0f       	add	r30, r30
 662:	ff 1f       	adc	r31, r31
 664:	e2 56       	subi	r30, 0x62	; 98
 666:	fe 4f       	sbci	r31, 0xFE	; 254
 668:	71 82       	std	Z+1, r7	; 0x01
 66a:	60 82       	st	Z, r6
 66c:	63 e0       	ldi	r22, 0x03	; 3
 66e:	86 e7       	ldi	r24, 0x76	; 118
 670:	03 dd       	rcall	.-1530   	; 0x78 <_sound>
 672:	80 91 26 02 	lds	r24, 0x0226
 676:	90 91 27 02 	lds	r25, 0x0227
 67a:	01 97       	sbiw	r24, 0x01	; 1
 67c:	19 f4       	brne	.+6      	; 0x684 <putStone+0xd8>
 67e:	85 e0       	ldi	r24, 0x05	; 5
 680:	90 e0       	ldi	r25, 0x00	; 0
 682:	02 c0       	rjmp	.+4      	; 0x688 <putStone+0xdc>
 684:	81 e0       	ldi	r24, 0x01	; 1
 686:	90 e0       	ldi	r25, 0x00	; 0
 688:	90 93 27 02 	sts	0x0227, r25
 68c:	80 93 26 02 	sts	0x0226, r24
 690:	df 91       	pop	r29
 692:	cf 91       	pop	r28
 694:	1f 91       	pop	r17
 696:	0f 91       	pop	r16
 698:	ff 90       	pop	r15
 69a:	ef 90       	pop	r14
 69c:	df 90       	pop	r13
 69e:	cf 90       	pop	r12
 6a0:	bf 90       	pop	r11
 6a2:	af 90       	pop	r10
 6a4:	9f 90       	pop	r9
 6a6:	8f 90       	pop	r8
 6a8:	7f 90       	pop	r7
 6aa:	6f 90       	pop	r6
 6ac:	08 95       	ret

000006ae <isFinishGame>:
 6ae:	ef 92       	push	r14
 6b0:	ff 92       	push	r15
 6b2:	0f 93       	push	r16
 6b4:	1f 93       	push	r17
 6b6:	cf 93       	push	r28
 6b8:	df 93       	push	r29
 6ba:	7c 01       	movw	r14, r24
 6bc:	00 e0       	ldi	r16, 0x00	; 0
 6be:	10 e0       	ldi	r17, 0x00	; 0
 6c0:	c0 e0       	ldi	r28, 0x00	; 0
 6c2:	d0 e0       	ldi	r29, 0x00	; 0
 6c4:	a7 01       	movw	r20, r14
 6c6:	b8 01       	movw	r22, r16
 6c8:	ce 01       	movw	r24, r28
 6ca:	f2 de       	rcall	.-540    	; 0x4b0 <judgePutStone>
 6cc:	01 97       	sbiw	r24, 0x01	; 1
 6ce:	71 f1       	breq	.+92     	; 0x72c <isFinishGame+0x7e>
 6d0:	21 96       	adiw	r28, 0x01	; 1
 6d2:	c8 30       	cpi	r28, 0x08	; 8
 6d4:	d1 05       	cpc	r29, r1
 6d6:	b1 f7       	brne	.-20     	; 0x6c4 <isFinishGame+0x16>
 6d8:	0f 5f       	subi	r16, 0xFF	; 255
 6da:	1f 4f       	sbci	r17, 0xFF	; 255
 6dc:	08 30       	cpi	r16, 0x08	; 8
 6de:	11 05       	cpc	r17, r1
 6e0:	79 f7       	brne	.-34     	; 0x6c0 <isFinishGame+0x12>
 6e2:	80 e0       	ldi	r24, 0x00	; 0
 6e4:	90 e0       	ldi	r25, 0x00	; 0
 6e6:	20 e0       	ldi	r18, 0x00	; 0
 6e8:	30 e0       	ldi	r19, 0x00	; 0
 6ea:	40 e0       	ldi	r20, 0x00	; 0
 6ec:	50 e0       	ldi	r21, 0x00	; 0
 6ee:	bc 01       	movw	r22, r24
 6f0:	c3 e0       	ldi	r28, 0x03	; 3
 6f2:	66 0f       	add	r22, r22
 6f4:	77 1f       	adc	r23, r23
 6f6:	ca 95       	dec	r28
 6f8:	e1 f7       	brne	.-8      	; 0x6f2 <isFinishGame+0x44>
 6fa:	fb 01       	movw	r30, r22
 6fc:	e4 0f       	add	r30, r20
 6fe:	f5 1f       	adc	r31, r21
 700:	ee 0f       	add	r30, r30
 702:	ff 1f       	adc	r31, r31
 704:	e2 56       	subi	r30, 0x62	; 98
 706:	fe 4f       	sbci	r31, 0xFE	; 254
 708:	01 90       	ld	r0, Z+
 70a:	f0 81       	ld	r31, Z
 70c:	e0 2d       	mov	r30, r0
 70e:	31 97       	sbiw	r30, 0x01	; 1
 710:	11 f4       	brne	.+4      	; 0x716 <isFinishGame+0x68>
 712:	2f 5f       	subi	r18, 0xFF	; 255
 714:	3f 4f       	sbci	r19, 0xFF	; 255
 716:	4f 5f       	subi	r20, 0xFF	; 255
 718:	5f 4f       	sbci	r21, 0xFF	; 255
 71a:	48 30       	cpi	r20, 0x08	; 8
 71c:	51 05       	cpc	r21, r1
 71e:	69 f7       	brne	.-38     	; 0x6fa <isFinishGame+0x4c>
 720:	01 96       	adiw	r24, 0x01	; 1
 722:	88 30       	cpi	r24, 0x08	; 8
 724:	91 05       	cpc	r25, r1
 726:	09 f7       	brne	.-62     	; 0x6ea <isFinishGame+0x3c>
 728:	c9 01       	movw	r24, r18
 72a:	02 c0       	rjmp	.+4      	; 0x730 <isFinishGame+0x82>
 72c:	80 e0       	ldi	r24, 0x00	; 0
 72e:	90 e0       	ldi	r25, 0x00	; 0
 730:	df 91       	pop	r29
 732:	cf 91       	pop	r28
 734:	1f 91       	pop	r17
 736:	0f 91       	pop	r16
 738:	ff 90       	pop	r15
 73a:	ef 90       	pop	r14
 73c:	08 95       	ret

0000073e <game_play>:
 73e:	cf 93       	push	r28
 740:	df 93       	push	r29
 742:	08 dd       	rcall	.-1520   	; 0x154 <switch_isChanged>
 744:	89 2b       	or	r24, r25
 746:	09 f4       	brne	.+2      	; 0x74a <game_play+0xc>
 748:	4c c0       	rjmp	.+152    	; 0x7e2 <game_play+0xa4>
 74a:	14 dd       	rcall	.-1496   	; 0x174 <switch_getState>
 74c:	82 30       	cpi	r24, 0x02	; 2
 74e:	91 05       	cpc	r25, r1
 750:	b1 f0       	breq	.+44     	; 0x77e <game_play+0x40>
 752:	83 30       	cpi	r24, 0x03	; 3
 754:	91 05       	cpc	r25, r1
 756:	19 f1       	breq	.+70     	; 0x79e <game_play+0x60>
 758:	01 97       	sbiw	r24, 0x01	; 1
 75a:	09 f0       	breq	.+2      	; 0x75e <game_play+0x20>
 75c:	42 c0       	rjmp	.+132    	; 0x7e2 <game_play+0xa4>
 75e:	80 91 20 02 	lds	r24, 0x0220
 762:	90 91 21 02 	lds	r25, 0x0221
 766:	18 16       	cp	r1, r24
 768:	19 06       	cpc	r1, r25
 76a:	14 f4       	brge	.+4      	; 0x770 <game_play+0x32>
 76c:	01 97       	sbiw	r24, 0x01	; 1
 76e:	02 c0       	rjmp	.+4      	; 0x774 <game_play+0x36>
 770:	87 e0       	ldi	r24, 0x07	; 7
 772:	90 e0       	ldi	r25, 0x00	; 0
 774:	90 93 21 02 	sts	0x0221, r25
 778:	80 93 20 02 	sts	0x0220, r24
 77c:	32 c0       	rjmp	.+100    	; 0x7e2 <game_play+0xa4>
 77e:	80 91 22 02 	lds	r24, 0x0222
 782:	90 91 23 02 	lds	r25, 0x0223
 786:	87 30       	cpi	r24, 0x07	; 7
 788:	91 05       	cpc	r25, r1
 78a:	14 f4       	brge	.+4      	; 0x790 <game_play+0x52>
 78c:	01 96       	adiw	r24, 0x01	; 1
 78e:	02 c0       	rjmp	.+4      	; 0x794 <game_play+0x56>
 790:	80 e0       	ldi	r24, 0x00	; 0
 792:	90 e0       	ldi	r25, 0x00	; 0
 794:	90 93 23 02 	sts	0x0223, r25
 798:	80 93 22 02 	sts	0x0222, r24
 79c:	22 c0       	rjmp	.+68     	; 0x7e2 <game_play+0xa4>
 79e:	c0 91 26 02 	lds	r28, 0x0226
 7a2:	d0 91 27 02 	lds	r29, 0x0227
 7a6:	c1 30       	cpi	r28, 0x01	; 1
 7a8:	d1 05       	cpc	r29, r1
 7aa:	d9 f4       	brne	.+54     	; 0x7e2 <game_play+0xa4>
 7ac:	60 91 22 02 	lds	r22, 0x0222
 7b0:	70 91 23 02 	lds	r23, 0x0223
 7b4:	41 e0       	ldi	r20, 0x01	; 1
 7b6:	50 e0       	ldi	r21, 0x00	; 0
 7b8:	80 91 20 02 	lds	r24, 0x0220
 7bc:	90 91 21 02 	lds	r25, 0x0221
 7c0:	f5 de       	rcall	.-534    	; 0x5ac <putStone>
 7c2:	80 91 26 02 	lds	r24, 0x0226
 7c6:	90 91 27 02 	lds	r25, 0x0227
 7ca:	71 df       	rcall	.-286    	; 0x6ae <isFinishGame>
 7cc:	18 16       	cp	r1, r24
 7ce:	19 06       	cpc	r1, r25
 7d0:	24 f4       	brge	.+8      	; 0x7da <game_play+0x9c>
 7d2:	d0 93 90 01 	sts	0x0190, r29
 7d6:	c0 93 8f 01 	sts	0x018F, r28
 7da:	10 92 8e 01 	sts	0x018E, r1
 7de:	10 92 8d 01 	sts	0x018D, r1
 7e2:	df 91       	pop	r29
 7e4:	cf 91       	pop	r28
 7e6:	08 95       	ret

000007e8 <replace>:
 7e8:	e3 e0       	ldi	r30, 0x03	; 3
 7ea:	22 0f       	add	r18, r18
 7ec:	33 1f       	adc	r19, r19
 7ee:	ea 95       	dec	r30
 7f0:	e1 f7       	brne	.-8      	; 0x7ea <replace+0x2>
 7f2:	24 0f       	add	r18, r20
 7f4:	35 1f       	adc	r19, r21
 7f6:	22 0f       	add	r18, r18
 7f8:	33 1f       	adc	r19, r19
 7fa:	22 56       	subi	r18, 0x62	; 98
 7fc:	3e 4f       	sbci	r19, 0xFE	; 254
 7fe:	f9 01       	movw	r30, r18
 800:	40 81       	ld	r20, Z
 802:	51 81       	ldd	r21, Z+1	; 0x01
 804:	a3 e0       	ldi	r26, 0x03	; 3
 806:	66 0f       	add	r22, r22
 808:	77 1f       	adc	r23, r23
 80a:	aa 95       	dec	r26
 80c:	e1 f7       	brne	.-8      	; 0x806 <replace+0x1e>
 80e:	68 0f       	add	r22, r24
 810:	79 1f       	adc	r23, r25
 812:	66 0f       	add	r22, r22
 814:	77 1f       	adc	r23, r23
 816:	62 56       	subi	r22, 0x62	; 98
 818:	7e 4f       	sbci	r23, 0xFE	; 254
 81a:	fb 01       	movw	r30, r22
 81c:	80 81       	ld	r24, Z
 81e:	91 81       	ldd	r25, Z+1	; 0x01
 820:	f9 01       	movw	r30, r18
 822:	91 83       	std	Z+1, r25	; 0x01
 824:	80 83       	st	Z, r24
 826:	fb 01       	movw	r30, r22
 828:	51 83       	std	Z+1, r21	; 0x01
 82a:	40 83       	st	Z, r20
 82c:	08 95       	ret

0000082e <sortLED>:
 82e:	ef 92       	push	r14
 830:	ff 92       	push	r15
 832:	0f 93       	push	r16
 834:	1f 93       	push	r17
 836:	cf 93       	push	r28
 838:	df 93       	push	r29
 83a:	40 e0       	ldi	r20, 0x00	; 0
 83c:	50 e0       	ldi	r21, 0x00	; 0
 83e:	20 e0       	ldi	r18, 0x00	; 0
 840:	30 e0       	ldi	r19, 0x00	; 0
 842:	80 e0       	ldi	r24, 0x00	; 0
 844:	90 e0       	ldi	r25, 0x00	; 0
 846:	60 e0       	ldi	r22, 0x00	; 0
 848:	70 e0       	ldi	r23, 0x00	; 0
 84a:	ea 01       	movw	r28, r20
 84c:	e3 e0       	ldi	r30, 0x03	; 3
 84e:	cc 0f       	add	r28, r28
 850:	dd 1f       	adc	r29, r29
 852:	ea 95       	dec	r30
 854:	e1 f7       	brne	.-8      	; 0x84e <sortLED+0x20>
 856:	de 01       	movw	r26, r28
 858:	a6 0f       	add	r26, r22
 85a:	b7 1f       	adc	r27, r23
 85c:	aa 0f       	add	r26, r26
 85e:	bb 1f       	adc	r27, r27
 860:	a2 56       	subi	r26, 0x62	; 98
 862:	be 4f       	sbci	r27, 0xFE	; 254
 864:	ed 91       	ld	r30, X+
 866:	fc 91       	ld	r31, X
 868:	11 97       	sbiw	r26, 0x01	; 1
 86a:	31 97       	sbiw	r30, 0x01	; 1
 86c:	f1 f4       	brne	.+60     	; 0x8aa <sortLED+0x7c>
 86e:	f9 01       	movw	r30, r18
 870:	13 e0       	ldi	r17, 0x03	; 3
 872:	ee 0f       	add	r30, r30
 874:	ff 1f       	adc	r31, r31
 876:	1a 95       	dec	r17
 878:	e1 f7       	brne	.-8      	; 0x872 <sortLED+0x44>
 87a:	e8 0f       	add	r30, r24
 87c:	f9 1f       	adc	r31, r25
 87e:	ee 0f       	add	r30, r30
 880:	ff 1f       	adc	r31, r31
 882:	e2 56       	subi	r30, 0x62	; 98
 884:	fe 4f       	sbci	r31, 0xFE	; 254
 886:	00 81       	ld	r16, Z
 888:	11 81       	ldd	r17, Z+1	; 0x01
 88a:	ed 90       	ld	r14, X+
 88c:	fc 90       	ld	r15, X
 88e:	11 97       	sbiw	r26, 0x01	; 1
 890:	f1 82       	std	Z+1, r15	; 0x01
 892:	e0 82       	st	Z, r14
 894:	11 96       	adiw	r26, 0x01	; 1
 896:	1c 93       	st	X, r17
 898:	0e 93       	st	-X, r16
 89a:	01 96       	adiw	r24, 0x01	; 1
 89c:	88 30       	cpi	r24, 0x08	; 8
 89e:	91 05       	cpc	r25, r1
 8a0:	21 f4       	brne	.+8      	; 0x8aa <sortLED+0x7c>
 8a2:	2f 5f       	subi	r18, 0xFF	; 255
 8a4:	3f 4f       	sbci	r19, 0xFF	; 255
 8a6:	80 e0       	ldi	r24, 0x00	; 0
 8a8:	90 e0       	ldi	r25, 0x00	; 0
 8aa:	6f 5f       	subi	r22, 0xFF	; 255
 8ac:	7f 4f       	sbci	r23, 0xFF	; 255
 8ae:	68 30       	cpi	r22, 0x08	; 8
 8b0:	71 05       	cpc	r23, r1
 8b2:	89 f6       	brne	.-94     	; 0x856 <sortLED+0x28>
 8b4:	4f 5f       	subi	r20, 0xFF	; 255
 8b6:	5f 4f       	sbci	r21, 0xFF	; 255
 8b8:	48 30       	cpi	r20, 0x08	; 8
 8ba:	51 05       	cpc	r21, r1
 8bc:	21 f6       	brne	.-120    	; 0x846 <sortLED+0x18>
 8be:	40 e0       	ldi	r20, 0x00	; 0
 8c0:	50 e0       	ldi	r21, 0x00	; 0
 8c2:	60 e0       	ldi	r22, 0x00	; 0
 8c4:	70 e0       	ldi	r23, 0x00	; 0
 8c6:	ea 01       	movw	r28, r20
 8c8:	13 e0       	ldi	r17, 0x03	; 3
 8ca:	cc 0f       	add	r28, r28
 8cc:	dd 1f       	adc	r29, r29
 8ce:	1a 95       	dec	r17
 8d0:	e1 f7       	brne	.-8      	; 0x8ca <sortLED+0x9c>
 8d2:	de 01       	movw	r26, r28
 8d4:	a6 0f       	add	r26, r22
 8d6:	b7 1f       	adc	r27, r23
 8d8:	aa 0f       	add	r26, r26
 8da:	bb 1f       	adc	r27, r27
 8dc:	a2 56       	subi	r26, 0x62	; 98
 8de:	be 4f       	sbci	r27, 0xFE	; 254
 8e0:	ed 91       	ld	r30, X+
 8e2:	fc 91       	ld	r31, X
 8e4:	11 97       	sbiw	r26, 0x01	; 1
 8e6:	35 97       	sbiw	r30, 0x05	; 5
 8e8:	f1 f4       	brne	.+60     	; 0x926 <sortLED+0xf8>
 8ea:	f9 01       	movw	r30, r18
 8ec:	03 e0       	ldi	r16, 0x03	; 3
 8ee:	ee 0f       	add	r30, r30
 8f0:	ff 1f       	adc	r31, r31
 8f2:	0a 95       	dec	r16
 8f4:	e1 f7       	brne	.-8      	; 0x8ee <sortLED+0xc0>
 8f6:	e8 0f       	add	r30, r24
 8f8:	f9 1f       	adc	r31, r25
 8fa:	ee 0f       	add	r30, r30
 8fc:	ff 1f       	adc	r31, r31
 8fe:	e2 56       	subi	r30, 0x62	; 98
 900:	fe 4f       	sbci	r31, 0xFE	; 254
 902:	00 81       	ld	r16, Z
 904:	11 81       	ldd	r17, Z+1	; 0x01
 906:	ed 90       	ld	r14, X+
 908:	fc 90       	ld	r15, X
 90a:	11 97       	sbiw	r26, 0x01	; 1
 90c:	f1 82       	std	Z+1, r15	; 0x01
 90e:	e0 82       	st	Z, r14
 910:	11 96       	adiw	r26, 0x01	; 1
 912:	1c 93       	st	X, r17
 914:	0e 93       	st	-X, r16
 916:	01 96       	adiw	r24, 0x01	; 1
 918:	88 30       	cpi	r24, 0x08	; 8
 91a:	91 05       	cpc	r25, r1
 91c:	21 f4       	brne	.+8      	; 0x926 <sortLED+0xf8>
 91e:	2f 5f       	subi	r18, 0xFF	; 255
 920:	3f 4f       	sbci	r19, 0xFF	; 255
 922:	80 e0       	ldi	r24, 0x00	; 0
 924:	90 e0       	ldi	r25, 0x00	; 0
 926:	6f 5f       	subi	r22, 0xFF	; 255
 928:	7f 4f       	sbci	r23, 0xFF	; 255
 92a:	68 30       	cpi	r22, 0x08	; 8
 92c:	71 05       	cpc	r23, r1
 92e:	89 f6       	brne	.-94     	; 0x8d2 <sortLED+0xa4>
 930:	4f 5f       	subi	r20, 0xFF	; 255
 932:	5f 4f       	sbci	r21, 0xFF	; 255
 934:	48 30       	cpi	r20, 0x08	; 8
 936:	51 05       	cpc	r21, r1
 938:	21 f6       	brne	.-120    	; 0x8c2 <sortLED+0x94>
 93a:	df 91       	pop	r29
 93c:	cf 91       	pop	r28
 93e:	1f 91       	pop	r17
 940:	0f 91       	pop	r16
 942:	ff 90       	pop	r15
 944:	ef 90       	pop	r14
 946:	08 95       	ret

00000948 <game_finish>:
 948:	72 df       	rcall	.-284    	; 0x82e <sortLED>
 94a:	82 e0       	ldi	r24, 0x02	; 2
 94c:	90 e0       	ldi	r25, 0x00	; 0
 94e:	90 93 90 01 	sts	0x0190, r25
 952:	80 93 8f 01 	sts	0x018F, r24
 956:	08 95       	ret

00000958 <random_ai>:
 958:	8f 92       	push	r8
 95a:	9f 92       	push	r9
 95c:	af 92       	push	r10
 95e:	bf 92       	push	r11
 960:	cf 92       	push	r12
 962:	df 92       	push	r13
 964:	ef 92       	push	r14
 966:	ff 92       	push	r15
 968:	0f 93       	push	r16
 96a:	1f 93       	push	r17
 96c:	cf 93       	push	r28
 96e:	df 93       	push	r29
 970:	cd b7       	in	r28, 0x3d	; 61
 972:	de b7       	in	r29, 0x3e	; 62
 974:	c0 58       	subi	r28, 0x80	; 128
 976:	d1 09       	sbc	r29, r1
 978:	0f b6       	in	r0, 0x3f	; 63
 97a:	f8 94       	cli
 97c:	de bf       	out	0x3e, r29	; 62
 97e:	0f be       	out	0x3f, r0	; 63
 980:	cd bf       	out	0x3d, r28	; 61
 982:	5c 01       	movw	r10, r24
 984:	81 2c       	mov	r8, r1
 986:	91 2c       	mov	r9, r1
 988:	c1 2c       	mov	r12, r1
 98a:	d1 2c       	mov	r13, r1
 98c:	00 e0       	ldi	r16, 0x00	; 0
 98e:	10 e0       	ldi	r17, 0x00	; 0
 990:	e1 2c       	mov	r14, r1
 992:	f1 2c       	mov	r15, r1
 994:	a5 01       	movw	r20, r10
 996:	b6 01       	movw	r22, r12
 998:	c7 01       	movw	r24, r14
 99a:	8a dd       	rcall	.-1260   	; 0x4b0 <judgePutStone>
 99c:	01 97       	sbiw	r24, 0x01	; 1
 99e:	81 f4       	brne	.+32     	; 0x9c0 <random_ai+0x68>
 9a0:	f8 01       	movw	r30, r16
 9a2:	ee 0f       	add	r30, r30
 9a4:	ff 1f       	adc	r31, r31
 9a6:	81 e0       	ldi	r24, 0x01	; 1
 9a8:	90 e0       	ldi	r25, 0x00	; 0
 9aa:	8c 0f       	add	r24, r28
 9ac:	9d 1f       	adc	r25, r29
 9ae:	e8 0f       	add	r30, r24
 9b0:	f9 1f       	adc	r31, r25
 9b2:	c7 01       	movw	r24, r14
 9b4:	88 0d       	add	r24, r8
 9b6:	99 1d       	adc	r25, r9
 9b8:	91 83       	std	Z+1, r25	; 0x01
 9ba:	80 83       	st	Z, r24
 9bc:	0f 5f       	subi	r16, 0xFF	; 255
 9be:	1f 4f       	sbci	r17, 0xFF	; 255
 9c0:	9f ef       	ldi	r25, 0xFF	; 255
 9c2:	e9 1a       	sub	r14, r25
 9c4:	f9 0a       	sbc	r15, r25
 9c6:	e8 e0       	ldi	r30, 0x08	; 8
 9c8:	ee 16       	cp	r14, r30
 9ca:	f1 04       	cpc	r15, r1
 9cc:	19 f7       	brne	.-58     	; 0x994 <random_ai+0x3c>
 9ce:	ff ef       	ldi	r31, 0xFF	; 255
 9d0:	cf 1a       	sub	r12, r31
 9d2:	df 0a       	sbc	r13, r31
 9d4:	88 e0       	ldi	r24, 0x08	; 8
 9d6:	88 0e       	add	r8, r24
 9d8:	91 1c       	adc	r9, r1
 9da:	98 e0       	ldi	r25, 0x08	; 8
 9dc:	c9 16       	cp	r12, r25
 9de:	d1 04       	cpc	r13, r1
 9e0:	b9 f6       	brne	.-82     	; 0x990 <random_ai+0x38>
 9e2:	01 15       	cp	r16, r1
 9e4:	11 05       	cpc	r17, r1
 9e6:	49 f1       	breq	.+82     	; 0xa3a <random_ai+0xe2>
 9e8:	d2 db       	rcall	.-2140   	; 0x18e <random_rand>
 9ea:	b8 01       	movw	r22, r16
 9ec:	b8 d0       	rcall	.+368    	; 0xb5e <__divmodhi4>
 9ee:	88 0f       	add	r24, r24
 9f0:	99 1f       	adc	r25, r25
 9f2:	8c 0f       	add	r24, r28
 9f4:	9d 1f       	adc	r25, r29
 9f6:	fc 01       	movw	r30, r24
 9f8:	81 81       	ldd	r24, Z+1	; 0x01
 9fa:	92 81       	ldd	r25, Z+2	; 0x02
 9fc:	bc 01       	movw	r22, r24
 9fe:	97 ff       	sbrs	r25, 7
 a00:	02 c0       	rjmp	.+4      	; 0xa06 <random_ai+0xae>
 a02:	69 5f       	subi	r22, 0xF9	; 249
 a04:	7f 4f       	sbci	r23, 0xFF	; 255
 a06:	9b 01       	movw	r18, r22
 a08:	f3 e0       	ldi	r31, 0x03	; 3
 a0a:	35 95       	asr	r19
 a0c:	27 95       	ror	r18
 a0e:	fa 95       	dec	r31
 a10:	e1 f7       	brne	.-8      	; 0xa0a <random_ai+0xb2>
 a12:	68 e0       	ldi	r22, 0x08	; 8
 a14:	70 e0       	ldi	r23, 0x00	; 0
 a16:	a3 d0       	rcall	.+326    	; 0xb5e <__divmodhi4>
 a18:	a5 01       	movw	r20, r10
 a1a:	b9 01       	movw	r22, r18
 a1c:	c7 dd       	rcall	.-1138   	; 0x5ac <putStone>
 a1e:	80 91 26 02 	lds	r24, 0x0226
 a22:	90 91 27 02 	lds	r25, 0x0227
 a26:	43 de       	rcall	.-890    	; 0x6ae <isFinishGame>
 a28:	18 16       	cp	r1, r24
 a2a:	19 06       	cpc	r1, r25
 a2c:	34 f4       	brge	.+12     	; 0xa3a <random_ai+0xe2>
 a2e:	81 e0       	ldi	r24, 0x01	; 1
 a30:	90 e0       	ldi	r25, 0x00	; 0
 a32:	90 93 90 01 	sts	0x0190, r25
 a36:	80 93 8f 01 	sts	0x018F, r24
 a3a:	c0 58       	subi	r28, 0x80	; 128
 a3c:	df 4f       	sbci	r29, 0xFF	; 255
 a3e:	0f b6       	in	r0, 0x3f	; 63
 a40:	f8 94       	cli
 a42:	de bf       	out	0x3e, r29	; 62
 a44:	0f be       	out	0x3f, r0	; 63
 a46:	cd bf       	out	0x3d, r28	; 61
 a48:	df 91       	pop	r29
 a4a:	cf 91       	pop	r28
 a4c:	1f 91       	pop	r17
 a4e:	0f 91       	pop	r16
 a50:	ff 90       	pop	r15
 a52:	ef 90       	pop	r14
 a54:	df 90       	pop	r13
 a56:	cf 90       	pop	r12
 a58:	bf 90       	pop	r11
 a5a:	af 90       	pop	r10
 a5c:	9f 90       	pop	r9
 a5e:	8f 90       	pop	r8
 a60:	08 95       	ret

00000a62 <__vector_14>:
 a62:	1f 92       	push	r1
 a64:	0f 92       	push	r0
 a66:	0f b6       	in	r0, 0x3f	; 63
 a68:	0f 92       	push	r0
 a6a:	11 24       	eor	r1, r1
 a6c:	2f 93       	push	r18
 a6e:	3f 93       	push	r19
 a70:	4f 93       	push	r20
 a72:	5f 93       	push	r21
 a74:	6f 93       	push	r22
 a76:	7f 93       	push	r23
 a78:	8f 93       	push	r24
 a7a:	9f 93       	push	r25
 a7c:	af 93       	push	r26
 a7e:	bf 93       	push	r27
 a80:	ef 93       	push	r30
 a82:	ff 93       	push	r31
 a84:	80 91 8a 01 	lds	r24, 0x018A
 a88:	8f 5f       	subi	r24, 0xFF	; 255
 a8a:	80 93 8a 01 	sts	0x018A, r24
 a8e:	82 33       	cpi	r24, 0x32	; 50
 a90:	18 f0       	brcs	.+6      	; 0xa98 <__vector_14+0x36>
 a92:	10 92 8a 01 	sts	0x018A, r1
 a96:	fb da       	rcall	.-2570   	; 0x8e <sound_update>
 a98:	80 91 8d 01 	lds	r24, 0x018D
 a9c:	90 91 8e 01 	lds	r25, 0x018E
 aa0:	01 96       	adiw	r24, 0x01	; 1
 aa2:	90 93 8e 01 	sts	0x018E, r25
 aa6:	80 93 8d 01 	sts	0x018D, r24
 aaa:	84 3f       	cpi	r24, 0xF4	; 244
 aac:	91 40       	sbci	r25, 0x01	; 1
 aae:	6c f0       	brlt	.+26     	; 0xaca <__vector_14+0x68>
 ab0:	10 92 8e 01 	sts	0x018E, r1
 ab4:	10 92 8d 01 	sts	0x018D, r1
 ab8:	80 91 26 02 	lds	r24, 0x0226
 abc:	90 91 27 02 	lds	r25, 0x0227
 ac0:	05 97       	sbiw	r24, 0x05	; 5
 ac2:	19 f4       	brne	.+6      	; 0xaca <__vector_14+0x68>
 ac4:	85 e0       	ldi	r24, 0x05	; 5
 ac6:	90 e0       	ldi	r25, 0x00	; 0
 ac8:	47 df       	rcall	.-370    	; 0x958 <random_ai>
 aca:	80 91 88 01 	lds	r24, 0x0188
 ace:	90 91 89 01 	lds	r25, 0x0189
 ad2:	01 96       	adiw	r24, 0x01	; 1
 ad4:	90 93 89 01 	sts	0x0189, r25
 ad8:	80 93 88 01 	sts	0x0188, r24
 adc:	8a 3f       	cpi	r24, 0xFA	; 250
 ade:	91 05       	cpc	r25, r1
 ae0:	c4 f0       	brlt	.+48     	; 0xb12 <__vector_14+0xb0>
 ae2:	10 92 89 01 	sts	0x0189, r1
 ae6:	10 92 88 01 	sts	0x0188, r1
 aea:	80 91 26 02 	lds	r24, 0x0226
 aee:	90 91 27 02 	lds	r25, 0x0227
 af2:	20 91 24 02 	lds	r18, 0x0224
 af6:	30 91 25 02 	lds	r19, 0x0225
 afa:	28 17       	cp	r18, r24
 afc:	39 07       	cpc	r19, r25
 afe:	19 f4       	brne	.+6      	; 0xb06 <__vector_14+0xa4>
 b00:	26 e0       	ldi	r18, 0x06	; 6
 b02:	80 e0       	ldi	r24, 0x00	; 0
 b04:	02 c0       	rjmp	.+4      	; 0xb0a <__vector_14+0xa8>
 b06:	28 2f       	mov	r18, r24
 b08:	89 2f       	mov	r24, r25
 b0a:	20 93 24 02 	sts	0x0224, r18
 b0e:	80 93 25 02 	sts	0x0225, r24
 b12:	ff 91       	pop	r31
 b14:	ef 91       	pop	r30
 b16:	bf 91       	pop	r27
 b18:	af 91       	pop	r26
 b1a:	9f 91       	pop	r25
 b1c:	8f 91       	pop	r24
 b1e:	7f 91       	pop	r23
 b20:	6f 91       	pop	r22
 b22:	5f 91       	pop	r21
 b24:	4f 91       	pop	r20
 b26:	3f 91       	pop	r19
 b28:	2f 91       	pop	r18
 b2a:	0f 90       	pop	r0
 b2c:	0f be       	out	0x3f, r0	; 63
 b2e:	0f 90       	pop	r0
 b30:	1f 90       	pop	r1
 b32:	18 95       	reti

00000b34 <main>:
 b34:	0b dc       	rcall	.-2026   	; 0x34c <game_init>
 b36:	ef db       	rcall	.-2082   	; 0x316 <led_init>
 b38:	5c dc       	rcall	.-1864   	; 0x3f2 <timer_init>
 b3a:	d1 da       	rcall	.-2654   	; 0xde <switch_init>
 b3c:	97 da       	rcall	.-2770   	; 0x6c <sound_init>
 b3e:	1e db       	rcall	.-2500   	; 0x17c <random_init>
 b40:	78 94       	sei
 b42:	a8 95       	wdr
 b44:	db da       	rcall	.-2634   	; 0xfc <switch_update>
 b46:	80 91 8f 01 	lds	r24, 0x018F
 b4a:	90 91 90 01 	lds	r25, 0x0190
 b4e:	00 97       	sbiw	r24, 0x00	; 0
 b50:	21 f0       	breq	.+8      	; 0xb5a <main+0x26>
 b52:	01 97       	sbiw	r24, 0x01	; 1
 b54:	b1 f7       	brne	.-20     	; 0xb42 <main+0xe>
 b56:	f8 de       	rcall	.-528    	; 0x948 <game_finish>
 b58:	f4 cf       	rjmp	.-24     	; 0xb42 <main+0xe>
 b5a:	f1 dd       	rcall	.-1054   	; 0x73e <game_play>
 b5c:	f2 cf       	rjmp	.-28     	; 0xb42 <main+0xe>

00000b5e <__divmodhi4>:
 b5e:	97 fb       	bst	r25, 7
 b60:	07 2e       	mov	r0, r23
 b62:	16 f4       	brtc	.+4      	; 0xb68 <__divmodhi4+0xa>
 b64:	00 94       	com	r0
 b66:	06 d0       	rcall	.+12     	; 0xb74 <__divmodhi4_neg1>
 b68:	77 fd       	sbrc	r23, 7
 b6a:	08 d0       	rcall	.+16     	; 0xb7c <__divmodhi4_neg2>
 b6c:	0b d0       	rcall	.+22     	; 0xb84 <__udivmodhi4>
 b6e:	07 fc       	sbrc	r0, 7
 b70:	05 d0       	rcall	.+10     	; 0xb7c <__divmodhi4_neg2>
 b72:	3e f4       	brtc	.+14     	; 0xb82 <__divmodhi4_exit>

00000b74 <__divmodhi4_neg1>:
 b74:	90 95       	com	r25
 b76:	81 95       	neg	r24
 b78:	9f 4f       	sbci	r25, 0xFF	; 255
 b7a:	08 95       	ret

00000b7c <__divmodhi4_neg2>:
 b7c:	70 95       	com	r23
 b7e:	61 95       	neg	r22
 b80:	7f 4f       	sbci	r23, 0xFF	; 255

00000b82 <__divmodhi4_exit>:
 b82:	08 95       	ret

00000b84 <__udivmodhi4>:
 b84:	aa 1b       	sub	r26, r26
 b86:	bb 1b       	sub	r27, r27
 b88:	51 e1       	ldi	r21, 0x11	; 17
 b8a:	07 c0       	rjmp	.+14     	; 0xb9a <__udivmodhi4_ep>

00000b8c <__udivmodhi4_loop>:
 b8c:	aa 1f       	adc	r26, r26
 b8e:	bb 1f       	adc	r27, r27
 b90:	a6 17       	cp	r26, r22
 b92:	b7 07       	cpc	r27, r23
 b94:	10 f0       	brcs	.+4      	; 0xb9a <__udivmodhi4_ep>
 b96:	a6 1b       	sub	r26, r22
 b98:	b7 0b       	sbc	r27, r23

00000b9a <__udivmodhi4_ep>:
 b9a:	88 1f       	adc	r24, r24
 b9c:	99 1f       	adc	r25, r25
 b9e:	5a 95       	dec	r21
 ba0:	a9 f7       	brne	.-22     	; 0xb8c <__udivmodhi4_loop>
 ba2:	80 95       	com	r24
 ba4:	90 95       	com	r25
 ba6:	bc 01       	movw	r22, r24
 ba8:	cd 01       	movw	r24, r26
 baa:	08 95       	ret

00000bac <do_rand>:
 bac:	8f 92       	push	r8
 bae:	9f 92       	push	r9
 bb0:	af 92       	push	r10
 bb2:	bf 92       	push	r11
 bb4:	cf 92       	push	r12
 bb6:	df 92       	push	r13
 bb8:	ef 92       	push	r14
 bba:	ff 92       	push	r15
 bbc:	cf 93       	push	r28
 bbe:	df 93       	push	r29
 bc0:	ec 01       	movw	r28, r24
 bc2:	68 81       	ld	r22, Y
 bc4:	79 81       	ldd	r23, Y+1	; 0x01
 bc6:	8a 81       	ldd	r24, Y+2	; 0x02
 bc8:	9b 81       	ldd	r25, Y+3	; 0x03
 bca:	61 15       	cp	r22, r1
 bcc:	71 05       	cpc	r23, r1
 bce:	81 05       	cpc	r24, r1
 bd0:	91 05       	cpc	r25, r1
 bd2:	21 f4       	brne	.+8      	; 0xbdc <do_rand+0x30>
 bd4:	64 e2       	ldi	r22, 0x24	; 36
 bd6:	79 ed       	ldi	r23, 0xD9	; 217
 bd8:	8b e5       	ldi	r24, 0x5B	; 91
 bda:	97 e0       	ldi	r25, 0x07	; 7
 bdc:	2d e1       	ldi	r18, 0x1D	; 29
 bde:	33 ef       	ldi	r19, 0xF3	; 243
 be0:	41 e0       	ldi	r20, 0x01	; 1
 be2:	50 e0       	ldi	r21, 0x00	; 0
 be4:	62 d0       	rcall	.+196    	; 0xcaa <__divmodsi4>
 be6:	49 01       	movw	r8, r18
 be8:	5a 01       	movw	r10, r20
 bea:	9b 01       	movw	r18, r22
 bec:	ac 01       	movw	r20, r24
 bee:	a7 ea       	ldi	r26, 0xA7	; 167
 bf0:	b1 e4       	ldi	r27, 0x41	; 65
 bf2:	77 d0       	rcall	.+238    	; 0xce2 <__muluhisi3>
 bf4:	6b 01       	movw	r12, r22
 bf6:	7c 01       	movw	r14, r24
 bf8:	ac ee       	ldi	r26, 0xEC	; 236
 bfa:	b4 ef       	ldi	r27, 0xF4	; 244
 bfc:	a5 01       	movw	r20, r10
 bfe:	94 01       	movw	r18, r8
 c00:	7c d0       	rcall	.+248    	; 0xcfa <__mulohisi3>
 c02:	c6 0e       	add	r12, r22
 c04:	d7 1e       	adc	r13, r23
 c06:	e8 1e       	adc	r14, r24
 c08:	f9 1e       	adc	r15, r25
 c0a:	f7 fe       	sbrs	r15, 7
 c0c:	06 c0       	rjmp	.+12     	; 0xc1a <do_rand+0x6e>
 c0e:	81 e0       	ldi	r24, 0x01	; 1
 c10:	c8 1a       	sub	r12, r24
 c12:	d1 08       	sbc	r13, r1
 c14:	e1 08       	sbc	r14, r1
 c16:	80 e8       	ldi	r24, 0x80	; 128
 c18:	f8 0a       	sbc	r15, r24
 c1a:	c8 82       	st	Y, r12
 c1c:	d9 82       	std	Y+1, r13	; 0x01
 c1e:	ea 82       	std	Y+2, r14	; 0x02
 c20:	fb 82       	std	Y+3, r15	; 0x03
 c22:	c6 01       	movw	r24, r12
 c24:	9f 77       	andi	r25, 0x7F	; 127
 c26:	df 91       	pop	r29
 c28:	cf 91       	pop	r28
 c2a:	ff 90       	pop	r15
 c2c:	ef 90       	pop	r14
 c2e:	df 90       	pop	r13
 c30:	cf 90       	pop	r12
 c32:	bf 90       	pop	r11
 c34:	af 90       	pop	r10
 c36:	9f 90       	pop	r9
 c38:	8f 90       	pop	r8
 c3a:	08 95       	ret

00000c3c <rand_r>:
 c3c:	b7 df       	rcall	.-146    	; 0xbac <do_rand>
 c3e:	08 95       	ret

00000c40 <rand>:
 c40:	80 e8       	ldi	r24, 0x80	; 128
 c42:	91 e0       	ldi	r25, 0x01	; 1
 c44:	b3 df       	rcall	.-154    	; 0xbac <do_rand>
 c46:	08 95       	ret

00000c48 <srand>:
 c48:	a0 e0       	ldi	r26, 0x00	; 0
 c4a:	b0 e0       	ldi	r27, 0x00	; 0
 c4c:	80 93 80 01 	sts	0x0180, r24
 c50:	90 93 81 01 	sts	0x0181, r25
 c54:	a0 93 82 01 	sts	0x0182, r26
 c58:	b0 93 83 01 	sts	0x0183, r27
 c5c:	08 95       	ret

00000c5e <__eerd_word_m88pa>:
 c5e:	a8 e1       	ldi	r26, 0x18	; 24
 c60:	b0 e0       	ldi	r27, 0x00	; 0
 c62:	42 e0       	ldi	r20, 0x02	; 2
 c64:	50 e0       	ldi	r21, 0x00	; 0
 c66:	05 c0       	rjmp	.+10     	; 0xc72 <__eerd_blraw_m88pa>

00000c68 <__eewr_word_m88pa>:
 c68:	12 d0       	rcall	.+36     	; 0xc8e <__eewr_byte_m88pa>
 c6a:	27 2f       	mov	r18, r23
 c6c:	11 c0       	rjmp	.+34     	; 0xc90 <__eewr_r18_m88pa>

00000c6e <__eerd_block_m88pa>:
 c6e:	dc 01       	movw	r26, r24
 c70:	cb 01       	movw	r24, r22

00000c72 <__eerd_blraw_m88pa>:
 c72:	fc 01       	movw	r30, r24
 c74:	f9 99       	sbic	0x1f, 1	; 31
 c76:	fe cf       	rjmp	.-4      	; 0xc74 <__eerd_blraw_m88pa+0x2>
 c78:	06 c0       	rjmp	.+12     	; 0xc86 <__eerd_blraw_m88pa+0x14>
 c7a:	f2 bd       	out	0x22, r31	; 34
 c7c:	e1 bd       	out	0x21, r30	; 33
 c7e:	f8 9a       	sbi	0x1f, 0	; 31
 c80:	31 96       	adiw	r30, 0x01	; 1
 c82:	00 b4       	in	r0, 0x20	; 32
 c84:	0d 92       	st	X+, r0
 c86:	41 50       	subi	r20, 0x01	; 1
 c88:	50 40       	sbci	r21, 0x00	; 0
 c8a:	b8 f7       	brcc	.-18     	; 0xc7a <__eerd_blraw_m88pa+0x8>
 c8c:	08 95       	ret

00000c8e <__eewr_byte_m88pa>:
 c8e:	26 2f       	mov	r18, r22

00000c90 <__eewr_r18_m88pa>:
 c90:	f9 99       	sbic	0x1f, 1	; 31
 c92:	fe cf       	rjmp	.-4      	; 0xc90 <__eewr_r18_m88pa>
 c94:	1f ba       	out	0x1f, r1	; 31
 c96:	92 bd       	out	0x22, r25	; 34
 c98:	81 bd       	out	0x21, r24	; 33
 c9a:	20 bd       	out	0x20, r18	; 32
 c9c:	0f b6       	in	r0, 0x3f	; 63
 c9e:	f8 94       	cli
 ca0:	fa 9a       	sbi	0x1f, 2	; 31
 ca2:	f9 9a       	sbi	0x1f, 1	; 31
 ca4:	0f be       	out	0x3f, r0	; 63
 ca6:	01 96       	adiw	r24, 0x01	; 1
 ca8:	08 95       	ret

00000caa <__divmodsi4>:
 caa:	05 2e       	mov	r0, r21
 cac:	97 fb       	bst	r25, 7
 cae:	16 f4       	brtc	.+4      	; 0xcb4 <__divmodsi4+0xa>
 cb0:	00 94       	com	r0
 cb2:	0f d0       	rcall	.+30     	; 0xcd2 <__negsi2>
 cb4:	57 fd       	sbrc	r21, 7
 cb6:	05 d0       	rcall	.+10     	; 0xcc2 <__divmodsi4_neg2>
 cb8:	24 d0       	rcall	.+72     	; 0xd02 <__udivmodsi4>
 cba:	07 fc       	sbrc	r0, 7
 cbc:	02 d0       	rcall	.+4      	; 0xcc2 <__divmodsi4_neg2>
 cbe:	46 f4       	brtc	.+16     	; 0xcd0 <__divmodsi4_exit>
 cc0:	08 c0       	rjmp	.+16     	; 0xcd2 <__negsi2>

00000cc2 <__divmodsi4_neg2>:
 cc2:	50 95       	com	r21
 cc4:	40 95       	com	r20
 cc6:	30 95       	com	r19
 cc8:	21 95       	neg	r18
 cca:	3f 4f       	sbci	r19, 0xFF	; 255
 ccc:	4f 4f       	sbci	r20, 0xFF	; 255
 cce:	5f 4f       	sbci	r21, 0xFF	; 255

00000cd0 <__divmodsi4_exit>:
 cd0:	08 95       	ret

00000cd2 <__negsi2>:
 cd2:	90 95       	com	r25
 cd4:	80 95       	com	r24
 cd6:	70 95       	com	r23
 cd8:	61 95       	neg	r22
 cda:	7f 4f       	sbci	r23, 0xFF	; 255
 cdc:	8f 4f       	sbci	r24, 0xFF	; 255
 cde:	9f 4f       	sbci	r25, 0xFF	; 255
 ce0:	08 95       	ret

00000ce2 <__muluhisi3>:
 ce2:	31 d0       	rcall	.+98     	; 0xd46 <__umulhisi3>
 ce4:	a5 9f       	mul	r26, r21
 ce6:	90 0d       	add	r25, r0
 ce8:	b4 9f       	mul	r27, r20
 cea:	90 0d       	add	r25, r0
 cec:	a4 9f       	mul	r26, r20
 cee:	80 0d       	add	r24, r0
 cf0:	91 1d       	adc	r25, r1
 cf2:	11 24       	eor	r1, r1
 cf4:	08 95       	ret

00000cf6 <__mulshisi3>:
 cf6:	b7 ff       	sbrs	r27, 7
 cf8:	f4 cf       	rjmp	.-24     	; 0xce2 <__muluhisi3>

00000cfa <__mulohisi3>:
 cfa:	f3 df       	rcall	.-26     	; 0xce2 <__muluhisi3>
 cfc:	82 1b       	sub	r24, r18
 cfe:	93 0b       	sbc	r25, r19
 d00:	08 95       	ret

00000d02 <__udivmodsi4>:
 d02:	a1 e2       	ldi	r26, 0x21	; 33
 d04:	1a 2e       	mov	r1, r26
 d06:	aa 1b       	sub	r26, r26
 d08:	bb 1b       	sub	r27, r27
 d0a:	fd 01       	movw	r30, r26
 d0c:	0d c0       	rjmp	.+26     	; 0xd28 <__udivmodsi4_ep>

00000d0e <__udivmodsi4_loop>:
 d0e:	aa 1f       	adc	r26, r26
 d10:	bb 1f       	adc	r27, r27
 d12:	ee 1f       	adc	r30, r30
 d14:	ff 1f       	adc	r31, r31
 d16:	a2 17       	cp	r26, r18
 d18:	b3 07       	cpc	r27, r19
 d1a:	e4 07       	cpc	r30, r20
 d1c:	f5 07       	cpc	r31, r21
 d1e:	20 f0       	brcs	.+8      	; 0xd28 <__udivmodsi4_ep>
 d20:	a2 1b       	sub	r26, r18
 d22:	b3 0b       	sbc	r27, r19
 d24:	e4 0b       	sbc	r30, r20
 d26:	f5 0b       	sbc	r31, r21

00000d28 <__udivmodsi4_ep>:
 d28:	66 1f       	adc	r22, r22
 d2a:	77 1f       	adc	r23, r23
 d2c:	88 1f       	adc	r24, r24
 d2e:	99 1f       	adc	r25, r25
 d30:	1a 94       	dec	r1
 d32:	69 f7       	brne	.-38     	; 0xd0e <__udivmodsi4_loop>
 d34:	60 95       	com	r22
 d36:	70 95       	com	r23
 d38:	80 95       	com	r24
 d3a:	90 95       	com	r25
 d3c:	9b 01       	movw	r18, r22
 d3e:	ac 01       	movw	r20, r24
 d40:	bd 01       	movw	r22, r26
 d42:	cf 01       	movw	r24, r30
 d44:	08 95       	ret

00000d46 <__umulhisi3>:
 d46:	a2 9f       	mul	r26, r18
 d48:	b0 01       	movw	r22, r0
 d4a:	b3 9f       	mul	r27, r19
 d4c:	c0 01       	movw	r24, r0
 d4e:	a3 9f       	mul	r26, r19
 d50:	01 d0       	rcall	.+2      	; 0xd54 <__umulhisi3+0xe>
 d52:	b2 9f       	mul	r27, r18
 d54:	70 0d       	add	r23, r0
 d56:	81 1d       	adc	r24, r1
 d58:	11 24       	eor	r1, r1
 d5a:	91 1d       	adc	r25, r1
 d5c:	08 95       	ret

00000d5e <_exit>:
 d5e:	f8 94       	cli

00000d60 <__stop_program>:
 d60:	ff cf       	rjmp	.-2      	; 0xd60 <__stop_program>
